target datalayout = "e-m:e-p270:32:32-p271:32:32-p272:64:64-i64:64-i128:128-f80:128-n8:16:32:64-S128"
target triple = "x86_64-pc-linux-gnu"

%struct.nstime_t = type { i64, i32 }

; Function Attrs: null_pointer_is_valid sspstrong uwtable
define internal void @dnp3_al_get_timestamp(ptr noundef %0, ptr noundef %1, i32 noundef %2) #0 {
  %4 = alloca ptr, align 8
  %5 = alloca ptr, align 8
  %6 = alloca i32, align 4
  %7 = alloca i32, align 4
  %8 = alloca i32, align 4
  %9 = alloca i64, align 8
  store ptr %0, ptr %4, align 8
  store ptr %1, ptr %5, align 8
  store i32 %2, ptr %6, align 4
  call void @llvm.lifetime.start.p0(i64 4, ptr %7) #11
  call void @llvm.lifetime.start.p0(i64 4, ptr %8) #11
  call void @llvm.lifetime.start.p0(i64 8, ptr %9) #11
  %10 = load ptr, ptr %5, align 8
  %11 = load i32, ptr %6, align 4
  %12 = call zeroext i16 @tvb_get_letohs(ptr noundef %10, i32 noundef %11)
  %13 = zext i16 %12 to i32
  store i32 %13, ptr %8, align 4
  %14 = load ptr, ptr %5, align 8
  %15 = load i32, ptr %6, align 4
  %16 = add i32 %15, 2
  %17 = call i32 @tvb_get_letohl(ptr noundef %14, i32 noundef %16)
  store i32 %17, ptr %7, align 4
  %18 = load i32, ptr %7, align 4
  %19 = zext i32 %18 to i64
  %20 = mul i64 %19, 65536
  %21 = load i32, ptr %8, align 4
  %22 = zext i32 %21 to i64
  %23 = add i64 %20, %22
  store i64 %23, ptr %9, align 8
  %24 = load i64, ptr %9, align 8
  %25 = udiv i64 %24, 1000
  %26 = load ptr, ptr %4, align 8
  %27 = getelementptr inbounds nuw %struct.nstime_t, ptr %26, i32 0, i32 0
  store i64 %25, ptr %27, align 8
  %28 = load i64, ptr %9, align 8
  %29 = urem i64 %28, 1000
  %30 = trunc i64 %29 to i32
  %31 = mul i32 %30, 1000000
  %32 = load ptr, ptr %4, align 8
  %33 = getelementptr inbounds nuw %struct.nstime_t, ptr %32, i32 0, i32 1
  store i32 %31, ptr %33, align 8
  call void @llvm.lifetime.end.p0(i64 8, ptr %9) #11
  call void @llvm.lifetime.end.p0(i64 4, ptr %8) #11
  call void @llvm.lifetime.end.p0(i64 4, ptr %7) #11
  ret void
}