; Function Attrs: null_pointer_is_valid sspstrong uwtable
define internal fastcc void @dnp3_al_get_timestamp(ptr noundef writeonly captures(none) initializes((0, 12)) %0, ptr noundef nonnull %1, i32 noundef %2) unnamed_addr #0 {
  %4 = tail call zeroext i16 @tvb_get_letohs(ptr noundef nonnull %1, i32 noundef %2)
  %5 = add i32 %2, 2
  %6 = tail call i32 @tvb_get_letohl(ptr noundef nonnull %1, i32 noundef %5)
  %7 = zext i32 %6 to i64
  %8 = shl nuw nsw i64 %7, 16
  %9 = zext i16 %4 to i64
  %10 = or disjoint i64 %8, %9
  %11 = udiv i64 %10, 1000
  store i64 %11, ptr %0, align 8
  %12 = urem i64 %10, 1000
  %13 = trunc nuw nsw i64 %12 to i32
  %14 = mul nuw nsw i32 %13, 1000000
  %15 = getelementptr inbounds nuw i8, ptr %0, i64 8
  store i32 %14, ptr %15, align 8
  ret void
}